target datalayout = "e-m:e-p270:32:32-p271:32:32-p272:64:64-i64:64-i128:128-f80:128-n8:16:32:64-S128"
target triple = "x86_64-pc-linux-gnu"

%struct.hwloc_infos_s = type { ptr, i32, i32 }
%struct.hwloc_obj = type { i32, ptr, i32, ptr, i64, ptr, i32, i32, ptr, ptr, ptr, i32, ptr, ptr, i32, ptr, ptr, ptr, i32, i32, ptr, i32, ptr, i32, ptr, ptr, ptr, ptr, ptr, %struct.hwloc_infos_s, ptr, i64 }
%struct.hwloc_linux_backend_data_s = type { ptr, i32, i32, ptr, ptr, i32, i32, i32, i32, i32, i32, i32, %struct.utsname, i32, i32, i32 }
%struct.utsname = type { [65 x i8], [65 x i8], [65 x i8], [65 x i8], [65 x i8], [65 x i8] }

@.str.110 = private unnamed_addr constant [8 x i8] c"SoC%d%s\00", align 1

; Function Attrs: nounwind uwtable
define internal ptr @hwloc_checkat(ptr noundef %0, i32 noundef %1) #0 {
  %3 = alloca ptr, align 8
  %4 = alloca i32, align 4
  %5 = alloca ptr, align 8
  store ptr %0, ptr %3, align 8, !tbaa !3
  store i32 %1, ptr %4, align 4, !tbaa !10
  call void @llvm.lifetime.start.p0(i64 8, ptr %5) #14
  %6 = load ptr, ptr %3, align 8, !tbaa !3
  store ptr %6, ptr %5, align 8, !tbaa !3
  %7 = load i32, ptr %4, align 4, !tbaa !10
  %8 = icmp sge i32 %7, 0
  br i1 %8, label %9, label %20

9:                                                ; preds = %2
  br label %10

10:                                               ; preds = %16, %9
  %11 = load ptr, ptr %5, align 8, !tbaa !3
  %12 = load i8, ptr %11, align 1, !tbaa !54
  %13 = sext i8 %12 to i32
  %14 = icmp eq i32 %13, 47
  br i1 %14, label %15, label %19

15:                                               ; preds = %10
  br label %16

16:                                               ; preds = %15
  %17 = load ptr, ptr %5, align 8, !tbaa !3
  %18 = getelementptr inbounds nuw i8, ptr %17, i32 1
  store ptr %18, ptr %5, align 8, !tbaa !3
  br label %10, !llvm.loop !97

19:                                               ; preds = %10
  br label %20

20:                                               ; preds = %19, %2
  %21 = load ptr, ptr %5, align 8, !tbaa !3
  call void @llvm.lifetime.end.p0(i64 8, ptr %5) #14
  ret ptr %21
}

; Function Attrs: nounwind uwtable
define internal i32 @hwloc_openat(ptr noundef %0, i32 noundef %1) #0 {
  %3 = alloca i32, align 4
  %4 = alloca ptr, align 8
  %5 = alloca i32, align 4
  %6 = alloca ptr, align 8
  %7 = alloca i32, align 4
  store ptr %0, ptr %4, align 8, !tbaa !3
  store i32 %1, ptr %5, align 4, !tbaa !10
  call void @llvm.lifetime.start.p0(i64 8, ptr %6) #14
  %8 = load ptr, ptr %4, align 8, !tbaa !3
  %9 = load i32, ptr %5, align 4, !tbaa !10
  %10 = call ptr @hwloc_checkat(ptr noundef %8, i32 noundef %9)
  store ptr %10, ptr %6, align 8, !tbaa !3
  %11 = load ptr, ptr %6, align 8, !tbaa !3
  %12 = icmp ne ptr %11, null
  br i1 %12, label %14, label %13

13:                                               ; preds = %2
  store i32 -1, ptr %3, align 4
  store i32 1, ptr %7, align 4
  br label %18

14:                                               ; preds = %2
  %15 = load i32, ptr %5, align 4, !tbaa !10
  %16 = load ptr, ptr %6, align 8, !tbaa !3
  %17 = call i32 (i32, ptr, i32, ...) @openat(i32 noundef %15, ptr noundef %16, i32 noundef 0)
  store i32 %17, ptr %3, align 4
  store i32 1, ptr %7, align 4
  br label %18

18:                                               ; preds = %14, %13
  call void @llvm.lifetime.end.p0(i64 8, ptr %6) #14
  %19 = load i32, ptr %3, align 4
  ret i32 %19
}

; Function Attrs: inlinehint nounwind uwtable
define internal i32 @hwloc_open(ptr noundef %0, i32 noundef %1) #1 {
  %3 = alloca ptr, align 8
  %4 = alloca i32, align 4
  store ptr %0, ptr %3, align 8, !tbaa !3
  store i32 %1, ptr %4, align 4, !tbaa !10
  %5 = load ptr, ptr %3, align 8, !tbaa !3
  %6 = load i32, ptr %4, align 4, !tbaa !10
  %7 = call i32 @hwloc_openat(ptr noundef %5, i32 noundef %6)
  ret i32 %7
}

; Function Attrs: inlinehint nounwind uwtable
define internal i32 @hwloc_obj_add_info(ptr noundef %0, ptr noundef %1, ptr noundef %2) #1 {
  %4 = alloca ptr, align 8
  %5 = alloca ptr, align 8
  %6 = alloca ptr, align 8
  store ptr %0, ptr %4, align 8, !tbaa !47
  store ptr %1, ptr %5, align 8, !tbaa !3
  store ptr %2, ptr %6, align 8, !tbaa !3
  %7 = load ptr, ptr %4, align 8, !tbaa !47
  %8 = getelementptr inbounds nuw %struct.hwloc_obj, ptr %7, i32 0, i32 29
  %9 = load ptr, ptr %5, align 8, !tbaa !3
  %10 = load ptr, ptr %6, align 8, !tbaa !3
  %11 = call i32 @hwloc_modify_infos(ptr noundef %8, i64 noundef 1, ptr noundef %9, ptr noundef %10)
  ret i32 %11
}

; Function Attrs: inlinehint nounwind uwtable
define internal i64 @hwloc_read_path_by_length(ptr noundef %0, ptr noundef %1, i64 noundef %2, i32 noundef %3) #1 {
  %5 = alloca i64, align 8
  %6 = alloca ptr, align 8
  %7 = alloca ptr, align 8
  %8 = alloca i64, align 8
  %9 = alloca i32, align 4
  %10 = alloca i32, align 4
  %11 = alloca i64, align 8
  %12 = alloca i32, align 4
  store ptr %0, ptr %6, align 8, !tbaa !3
  store ptr %1, ptr %7, align 8, !tbaa !3
  store i64 %2, ptr %8, align 8, !tbaa !12
  store i32 %3, ptr %9, align 4, !tbaa !10
  call void @llvm.lifetime.start.p0(i64 4, ptr %10) #14
  call void @llvm.lifetime.start.p0(i64 8, ptr %11) #14
  %13 = load ptr, ptr %6, align 8, !tbaa !3
  %14 = load i32, ptr %9, align 4, !tbaa !10
  %15 = call i32 @hwloc_open(ptr noundef %13, i32 noundef %14)
  store i32 %15, ptr %10, align 4, !tbaa !10
  %16 = load i32, ptr %10, align 4, !tbaa !10
  %17 = icmp slt i32 %16, 0
  br i1 %17, label %18, label %19

18:                                               ; preds = %4
  store i64 -1, ptr %5, align 8
  store i32 1, ptr %12, align 4
  br label %35

19:                                               ; preds = %4
  %20 = load i32, ptr %10, align 4, !tbaa !10
  %21 = load ptr, ptr %7, align 8, !tbaa !3
  %22 = load i64, ptr %8, align 8, !tbaa !12
  %23 = sub i64 %22, 1
  %24 = call i64 @read(i32 noundef %20, ptr noundef %21, i64 noundef %23)
  store i64 %24, ptr %11, align 8, !tbaa !12
  %25 = load i32, ptr %10, align 4, !tbaa !10
  %26 = call i32 @close(i32 noundef %25)
  %27 = load i64, ptr %11, align 8, !tbaa !12
  %28 = icmp sle i64 %27, 0
  br i1 %28, label %29, label %30

29:                                               ; preds = %19
  store i64 -1, ptr %5, align 8
  store i32 1, ptr %12, align 4
  br label %35

30:                                               ; preds = %19
  %31 = load ptr, ptr %7, align 8, !tbaa !3
  %32 = load i64, ptr %11, align 8, !tbaa !12
  %33 = getelementptr inbounds i8, ptr %31, i64 %32
  store i8 0, ptr %33, align 1, !tbaa !54
  %34 = load i64, ptr %11, align 8, !tbaa !12
  store i64 %34, ptr %5, align 8
  store i32 1, ptr %12, align 4
  br label %35

35:                                               ; preds = %30, %29, %18
  call void @llvm.lifetime.end.p0(i64 8, ptr %11) #14
  call void @llvm.lifetime.end.p0(i64 4, ptr %10) #14
  %36 = load i64, ptr %5, align 8
  ret i64 %36
}

; Function Attrs: nounwind uwtable
define internal void @hwloc__get_soc_one_info(ptr noundef %0, ptr noundef %1, ptr noundef %2, i32 noundef %3, ptr noundef %4) #0 {
  %6 = alloca ptr, align 8
  %7 = alloca ptr, align 8
  %8 = alloca ptr, align 8
  %9 = alloca i32, align 4
  %10 = alloca ptr, align 8
  %11 = alloca [64 x i8], align 16
  %12 = alloca [64 x i8], align 16
  %13 = alloca i32, align 4
  %14 = alloca ptr, align 8
  store ptr %0, ptr %6, align 8, !tbaa !140
  store ptr %1, ptr %7, align 8, !tbaa !47
  store ptr %2, ptr %8, align 8, !tbaa !3
  store i32 %3, ptr %9, align 4, !tbaa !10
  store ptr %4, ptr %10, align 8, !tbaa !3
  call void @llvm.lifetime.start.p0(i64 64, ptr %11) #14
  call void @llvm.lifetime.start.p0(i64 64, ptr %12) #14
  %15 = load ptr, ptr %8, align 8, !tbaa !3
  %16 = getelementptr inbounds [64 x i8], ptr %11, i64 0, i64 0
  %17 = load ptr, ptr %6, align 8, !tbaa !140
  %18 = getelementptr inbounds nuw %struct.hwloc_linux_backend_data_s, ptr %17, i32 0, i32 1
  %19 = load i32, ptr %18, align 8, !tbaa !157
  %20 = call i64 @hwloc_read_path_by_length(ptr noundef %15, ptr noundef %16, i64 noundef 64, i32 noundef %19)
  %21 = icmp sle i64 %20, 0
  br i1 %21, label %22, label %23

22:                                               ; preds = %5
  store i32 1, ptr %13, align 4
  br label %45

23:                                               ; preds = %5
  %24 = getelementptr inbounds [64 x i8], ptr %11, i64 0, i64 0
  %25 = load i8, ptr %24, align 16, !tbaa !54
  %26 = sext i8 %25 to i32
  %27 = icmp ne i32 %26, 0
  br i1 %27, label %28, label %44

28:                                               ; preds = %23
  call void @llvm.lifetime.start.p0(i64 8, ptr %14) #14
  %29 = getelementptr inbounds [64 x i8], ptr %11, i64 0, i64 0
  %30 = call ptr @strchr(ptr noundef %29, i32 noundef 10) #17
  store ptr %30, ptr %14, align 8, !tbaa !3
  %31 = load ptr, ptr %14, align 8, !tbaa !3
  %32 = icmp ne ptr %31, null
  br i1 %32, label %33, label %35

33:                                               ; preds = %28
  %34 = load ptr, ptr %14, align 8, !tbaa !3
  store i8 0, ptr %34, align 1, !tbaa !54
  br label %35

35:                                               ; preds = %33, %28
  %36 = getelementptr inbounds [64 x i8], ptr %12, i64 0, i64 0
  %37 = load i32, ptr %9, align 4, !tbaa !10
  %38 = load ptr, ptr %10, align 8, !tbaa !3
  %39 = call i32 (ptr, i64, ptr, ...) @snprintf(ptr noundef %36, i64 noundef 64, ptr noundef @.str.110, i32 noundef %37, ptr noundef %38) #14
  %40 = load ptr, ptr %7, align 8, !tbaa !47
  %41 = getelementptr inbounds [64 x i8], ptr %12, i64 0, i64 0
  %42 = getelementptr inbounds [64 x i8], ptr %11, i64 0, i64 0
  %43 = call i32 @hwloc_obj_add_info(ptr noundef %40, ptr noundef %41, ptr noundef %42)
  call void @llvm.lifetime.end.p0(i64 8, ptr %14) #14
  br label %44

44:                                               ; preds = %35, %23
  store i32 0, ptr %13, align 4
  br label %45

45:                                               ; preds = %44, %22
  call void @llvm.lifetime.end.p0(i64 64, ptr %12) #14
  call void @llvm.lifetime.end.p0(i64 64, ptr %11) #14
  %46 = load i32, ptr %13, align 4
  switch i32 %46, label %48 [
    i32 0, label %47
    i32 1, label %47
  ]

47:                                               ; preds = %45, %45
  ret void

48:                                               ; preds = %45
  unreachable
}