; Function Attrs: nounwind uwtable
define internal fastcc void @hwloc__get_soc_one_info(i32 %.8.val, ptr noundef %0, ptr noundef nonnull %1, i32 noundef %2, ptr noundef %3) unnamed_addr #0 {
  %5 = alloca [64 x i8], align 16
  %6 = alloca [64 x i8], align 16
  call void @llvm.lifetime.start.p0(i64 64, ptr nonnull %5) #27
  call void @llvm.lifetime.start.p0(i64 64, ptr nonnull %6) #27
  %7 = icmp sgt i32 %.8.val, -1
  br i1 %7, label %.preheader.i.i.i.i, label %hwloc_open.exit.i

.preheader.i.i.i.i:                               ; preds = %4, %.preheader.i.i.i.i
  %.1.i.i.i.i = phi ptr [ %10, %.preheader.i.i.i.i ], [ %1, %4 ]
  %8 = load i8, ptr %.1.i.i.i.i, align 1, !tbaa !7
  %9 = icmp eq i8 %8, 47
  %10 = getelementptr inbounds nuw i8, ptr %.1.i.i.i.i, i64 1
  br i1 %9, label %.preheader.i.i.i.i, label %hwloc_open.exit.i, !llvm.loop !8

hwloc_open.exit.i:                                ; preds = %.preheader.i.i.i.i, %4
  %.0.i8.i.i.i = phi ptr [ %1, %4 ], [ %.1.i.i.i.i, %.preheader.i.i.i.i ]
  %11 = tail call i32 (i32, ptr, i32, ...) @openat(i32 noundef %.8.val, ptr noundef nonnull %.0.i8.i.i.i, i32 noundef 0) #27
  %12 = icmp slt i32 %11, 0
  br i1 %12, label %hwloc_read_path_by_length.exit.thread, label %13

13:                                               ; preds = %hwloc_open.exit.i
  %14 = call i64 @read(i32 noundef %11, ptr noundef nonnull %5, i64 noundef 63) #27
  %15 = tail call i32 @close(i32 noundef %11) #27
  %16 = icmp slt i64 %14, 1
  br i1 %16, label %hwloc_read_path_by_length.exit.thread, label %hwloc_read_path_by_length.exit

hwloc_read_path_by_length.exit:                   ; preds = %13
  %17 = getelementptr inbounds nuw i8, ptr %5, i64 %14
  store i8 0, ptr %17, align 1, !tbaa !7
  %18 = load i8, ptr %5, align 16
  %.not = icmp eq i8 %18, 0
  br i1 %.not, label %hwloc_read_path_by_length.exit.thread, label %19

19:                                               ; preds = %hwloc_read_path_by_length.exit
  %20 = call ptr @strchr(ptr noundef nonnull dereferenceable(1) %5, i32 noundef 10) #30
  %.not6 = icmp eq ptr %20, null
  br i1 %.not6, label %22, label %21

21:                                               ; preds = %19
  store i8 0, ptr %20, align 1, !tbaa !7
  br label %22

22:                                               ; preds = %21, %19
  %23 = call i32 (ptr, i64, ptr, ...) @snprintf(ptr noundef nonnull dereferenceable(1) %6, i64 noundef 64, ptr noundef nonnull @.str.110, i32 noundef %2, ptr noundef %3) #27
  %24 = getelementptr inbounds nuw i8, ptr %0, i64 216
  %25 = call i32 @hwloc_modify_infos(ptr noundef nonnull %24, i64 noundef 1, ptr noundef nonnull %6, ptr noundef nonnull %5) #27
  br label %hwloc_read_path_by_length.exit.thread

hwloc_read_path_by_length.exit.thread:            ; preds = %13, %hwloc_open.exit.i, %22, %hwloc_read_path_by_length.exit
  call void @llvm.lifetime.end.p0(i64 64, ptr nonnull %6) #27
  call void @llvm.lifetime.end.p0(i64 64, ptr nonnull %5) #27
  ret void
}